; Function Attrs: mustprogress uwtable
define internal void @_ZN12_GLOBAL__N_136PoolURBGTypedTest_URBGInterface_TestIN4absl15random_internal8PoolURBGImLm8EEEE8TestBodyEv(ptr nocapture nonnull readnone align 8 %this) unnamed_addr #3 align 2 {
_ZN4absl15random_internal8PoolURBGImLm8EEclEv.exit24:
  %e = alloca %"class.absl::random_internal::PoolURBG.47", align 8
  %u0 = alloca %"class.absl::random_internal::PoolURBG.47", align 8
  %u1 = alloca %"class.absl::random_internal::PoolURBG.47", align 8
  store i64 4, ptr %e, align 8
  %.sroa.gep29 = getelementptr inbounds i8, ptr %e, i64 40
  call void @_ZN4absl15random_internal10RandenPoolImE4FillENS_4SpanImEE(ptr nonnull %.sroa.gep29, i64 4)
  %.pre.i = load i64, ptr %e, align 8
  %inc.i = add i64 %.pre.i, 1
  store i64 %inc.i, ptr %e, align 8
  store i64 4, ptr %u0, align 8
  %.sroa.gep27 = getelementptr inbounds i8, ptr %u0, i64 40
  call void @_ZN4absl15random_internal10RandenPoolImE4FillENS_4SpanImEE(ptr nonnull %.sroa.gep27, i64 4)
  %.pre.i11 = load i64, ptr %u0, align 8
  %inc.i3 = add i64 %.pre.i11, 1
  store i64 %inc.i3, ptr %u0, align 8
  store i64 4, ptr %u1, align 8
  %.sroa.gep25 = getelementptr inbounds i8, ptr %u1, i64 40
  call void @_ZN4absl15random_internal10RandenPoolImE4FillENS_4SpanImEE(ptr nonnull %.sroa.gep25, i64 4)
  ret void
}